; Function Attrs: mustprogress nofree norecurse nosync nounwind memory(readwrite, inaccessiblemem: none) uwtable
define internal void @_ZL21evaluate_keyword_realRKN3gmx20SelMethodEvalContextEP15gmx_ana_index_tP18gmx_ana_selvalue_tPv(ptr nonnull readnone align 8 captures(none) %0, ptr noundef readonly captures(none) %1, ptr noundef readonly captures(none) %2, ptr noundef readonly captures(none) %3) #2 {
  %5 = getelementptr inbounds nuw i8, ptr %2, i64 8
  %6 = load ptr, ptr %5, align 8, !tbaa !4
  store i32 0, ptr %6, align 8, !tbaa !19
  %7 = getelementptr inbounds nuw i8, ptr %3, i64 8
  %8 = load i32, ptr %7, align 8, !tbaa !29
  %.fr46 = freeze i32 %8
  %9 = load i32, ptr %1, align 8, !tbaa !19
  %10 = icmp sgt i32 %9, 0
  br i1 %10, label %.lr.ph44, label %._crit_edge45

.lr.ph44:                                         ; preds = %4
  %11 = load ptr, ptr %3, align 8, !tbaa !26
  %12 = getelementptr inbounds nuw i8, ptr %3, i64 16
  %13 = load ptr, ptr %12, align 8, !tbaa !30
  %14 = load float, ptr %13, align 4, !tbaa !31
  %15 = shl nsw i32 %.fr46, 1
  %16 = sext i32 %15 to i64
  %17 = getelementptr float, ptr %13, i64 %16
  %18 = getelementptr i8, ptr %17, i64 -4
  %19 = icmp sgt i32 %.fr46, 1
  %20 = getelementptr inbounds nuw i8, ptr %1, i64 8
  br i1 %19, label %.lr.ph44.split.us, label %.lr.ph44.split

.lr.ph44.split.us:                                ; preds = %.lr.ph44, %59
  %21 = phi i32 [ %60, %59 ], [ %9, %.lr.ph44 ]
  %indvars.iv49 = phi i64 [ %indvars.iv.next50, %59 ], [ 0, %.lr.ph44 ]
  %22 = getelementptr inbounds nuw float, ptr %11, i64 %indvars.iv49
  %23 = load float, ptr %22, align 4, !tbaa !31
  %24 = fcmp ogt float %14, %23
  br i1 %24, label %59, label %25

25:                                               ; preds = %.lr.ph44.split.us
  %26 = load float, ptr %18, align 4, !tbaa !31
  %27 = fcmp olt float %26, %23
  br i1 %27, label %59, label %.preheader.us

.preheader.us:                                    ; preds = %25, %56
  %28 = phi i32 [ %57, %56 ], [ %.fr46, %25 ]
  %.03339.us = phi i32 [ %.1.us, %56 ], [ %.fr46, %25 ]
  %.03438.us = phi i32 [ %.2.us, %56 ], [ 0, %25 ]
  %29 = lshr i32 %28, 1
  %30 = add nuw nsw i32 %29, %.03438.us
  %31 = shl nuw nsw i32 %30, 1
  %32 = zext nneg i32 %31 to i64
  %33 = getelementptr inbounds nuw float, ptr %13, i64 %32
  %34 = load float, ptr %33, align 4, !tbaa !31
  %35 = fcmp olt float %23, %34
  br i1 %35, label %56, label %36

36:                                               ; preds = %.preheader.us
  %37 = or disjoint i32 %31, 1
  %38 = zext nneg i32 %37 to i64
  %39 = getelementptr inbounds nuw float, ptr %13, i64 %38
  %40 = load float, ptr %39, align 4, !tbaa !31
  %41 = fcmp ugt float %23, %40
  br i1 %41, label %56, label %._crit_edge.us

._crit_edge.us:                                   ; preds = %36, %.._crit_edge.us_crit_edge
  %.pre-phi57 = phi i64 [ %.pre56, %.._crit_edge.us_crit_edge ], [ %38, %36 ]
  %42 = getelementptr inbounds nuw float, ptr %13, i64 %.pre-phi57
  %43 = load float, ptr %42, align 4, !tbaa !31
  %44 = fcmp ugt float %23, %43
  br i1 %44, label %59, label %45

45:                                               ; preds = %._crit_edge.us
  %46 = load ptr, ptr %20, align 8, !tbaa !22
  %47 = getelementptr inbounds nuw i32, ptr %46, i64 %indvars.iv49
  %48 = load i32, ptr %47, align 4, !tbaa !21
  %49 = load ptr, ptr %5, align 8, !tbaa !4
  %50 = getelementptr inbounds nuw i8, ptr %49, i64 8
  %51 = load ptr, ptr %50, align 8, !tbaa !22
  %52 = load i32, ptr %49, align 8, !tbaa !19
  %53 = add nsw i32 %52, 1
  store i32 %53, ptr %49, align 8, !tbaa !19
  %54 = sext i32 %52 to i64
  %55 = getelementptr inbounds i32, ptr %51, i64 %54
  store i32 %48, ptr %55, align 4, !tbaa !21
  %.pre52 = load i32, ptr %1, align 8, !tbaa !19
  br label %59

56:                                               ; preds = %36, %.preheader.us
  %.2.us = phi i32 [ %30, %36 ], [ %.03438.us, %.preheader.us ]
  %.1.us = phi i32 [ %.03339.us, %36 ], [ %30, %.preheader.us ]
  %57 = sub nsw i32 %.1.us, %.2.us
  %58 = icmp sgt i32 %57, 1
  br i1 %58, label %.preheader.us, label %.._crit_edge.us_crit_edge, !llvm.loop !33

.._crit_edge.us_crit_edge:                        ; preds = %56
  %.pre53 = shl nuw nsw i32 %.2.us, 1
  %.pre54 = or disjoint i32 %.pre53, 1
  %.pre56 = zext nneg i32 %.pre54 to i64
  br label %._crit_edge.us

59:                                               ; preds = %45, %._crit_edge.us, %25, %.lr.ph44.split.us
  %60 = phi i32 [ %.pre52, %45 ], [ %21, %._crit_edge.us ], [ %21, %25 ], [ %21, %.lr.ph44.split.us ]
  %indvars.iv.next50 = add nuw nsw i64 %indvars.iv49, 1
  %61 = sext i32 %60 to i64
  %62 = icmp slt i64 %indvars.iv.next50, %61
  br i1 %62, label %.lr.ph44.split.us, label %._crit_edge45, !llvm.loop !34

.lr.ph44.split:                                   ; preds = %.lr.ph44
  %63 = getelementptr inbounds nuw i8, ptr %13, i64 4
  br label %64

64:                                               ; preds = %.lr.ph44.split, %85
  %65 = phi i32 [ %9, %.lr.ph44.split ], [ %86, %85 ]
  %indvars.iv = phi i64 [ 0, %.lr.ph44.split ], [ %indvars.iv.next, %85 ]
  %66 = getelementptr inbounds nuw float, ptr %11, i64 %indvars.iv
  %67 = load float, ptr %66, align 4, !tbaa !31
  %68 = fcmp ogt float %14, %67
  br i1 %68, label %85, label %69

69:                                               ; preds = %64
  %70 = load float, ptr %18, align 4, !tbaa !31
  %71 = fcmp olt float %70, %67
  br i1 %71, label %85, label %.preheader

.preheader:                                       ; preds = %69
  %72 = load float, ptr %63, align 4, !tbaa !31
  %73 = fcmp ugt float %67, %72
  br i1 %73, label %85, label %74

74:                                               ; preds = %.preheader
  %75 = load ptr, ptr %20, align 8, !tbaa !22
  %76 = getelementptr inbounds nuw i32, ptr %75, i64 %indvars.iv
  %77 = load i32, ptr %76, align 4, !tbaa !21
  %78 = load ptr, ptr %5, align 8, !tbaa !4
  %79 = getelementptr inbounds nuw i8, ptr %78, i64 8
  %80 = load ptr, ptr %79, align 8, !tbaa !22
  %81 = load i32, ptr %78, align 8, !tbaa !19
  %82 = add nsw i32 %81, 1
  store i32 %82, ptr %78, align 8, !tbaa !19
  %83 = sext i32 %81 to i64
  %84 = getelementptr inbounds i32, ptr %80, i64 %83
  store i32 %77, ptr %84, align 4, !tbaa !21
  %.pre = load i32, ptr %1, align 8, !tbaa !19
  br label %85

85:                                               ; preds = %.preheader, %74, %64, %69
  %86 = phi i32 [ %65, %.preheader ], [ %.pre, %74 ], [ %65, %64 ], [ %65, %69 ]
  %indvars.iv.next = add nuw nsw i64 %indvars.iv, 1
  %87 = sext i32 %86 to i64
  %88 = icmp slt i64 %indvars.iv.next, %87
  br i1 %88, label %64, label %._crit_edge45, !llvm.loop !34

._crit_edge45:                                    ; preds = %85, %59, %4
  ret void
}